Certificate:
    Data:
        Version: 3 (0x2)
        Serial Number: 2 (0x2)
    Signature Algorithm: sha1WithRSAEncryption
        Issuer: C=US, ST=California, L=Palo Alto, O=AT&T, OU=Foundry, CN=*
        Validity
            Not Before: Aug 21 20:59:24 2014 GMT
            Not After : Aug 18 20:59:24 2024 GMT
        Subject: C=US, ST=California, O=AT&T, OU=Foundry, CN=docker.pao19.tfoundry.com
        Subject Public Key Info:
            Public Key Algorithm: rsaEncryption
                Public-Key: (2048 bit)
                Modulus:
                    00:e0:58:2d:f3:9e:98:80:98:b3:de:7e:e0:3d:7a:
                    1c:1c:f5:75:a6:f7:b0:24:46:0b:fd:a4:bd:20:70:
                    ef:48:09:15:4a:92:64:fc:2b:1f:9c:bc:33:4e:d3:
                    89:21:a0:89:0c:af:8b:22:48:f3:83:b6:c2:ce:6a:
                    4d:6e:a3:5e:28:8c:93:a5:c4:50:5a:17:5c:2d:c7:
                    ce:7c:e1:d9:75:b8:2b:0e:55:3d:be:3f:22:ac:14:
                    82:53:6c:10:8d:54:8b:38:cc:b3:d8:49:89:6e:db:
                    62:9c:e2:01:62:65:28:04:fd:eb:f2:31:0e:f5:49:
                    6e:9f:76:0c:07:85:9b:48:50:5f:2a:95:24:8d:b9:
                    a7:87:b6:0f:fb:06:fb:72:42:5c:e3:c0:79:ef:a1:
                    76:be:ea:f4:f4:e1:7e:86:9d:6d:fc:84:89:13:e5:
                    5f:48:e7:44:e6:49:43:74:31:30:04:66:c2:d1:1e:
                    f9:41:56:ff:67:23:11:e8:71:5d:d9:95:00:1b:e6:
                    08:d5:4d:16:a9:a9:e2:ae:3c:f2:88:d2:2e:42:e8:
                    25:e8:df:2d:32:32:5d:41:b7:97:fb:8c:23:64:80:
                    60:ca:db:48:49:91:72:fc:5e:59:8b:fb:55:82:1c:
                    a0:08:14:bb:69:29:8b:5f:5f:ec:a9:d2:39:56:78:
                    7b:bf
                Exponent: 65537 (0x10001)
        X509v3 extensions:
            X509v3 Basic Constraints: 
                CA:FALSE
            Netscape Comment: 
                OpenSSL Generated Certificate
            X509v3 Subject Key Identifier: 
                D8:6E:E1:A2:DD:11:15:8F:9E:66:5D:8D:84:86:8F:B4:0D:F6:DA:C7
            X509v3 Authority Key Identifier: 
                keyid:8C:A2:C8:C3:B9:D5:06:CB:DC:66:7A:1D:48:12:66:71:1E:4B:35:53
                DirName:/C=US/ST=California/L=Palo Alto/O=AT&T/OU=Foundry/CN=*
                serial:8C:18:6C:99:D5:84:1B:4B

            X509v3 Extended Key Usage: 
                TLS Web Client Authentication
            X509v3 Key Usage: 
                Digital Signature
            X509v3 Subject Alternative Name: 
                <EMPTY>

            X509v3 Issuer Alternative Name: 
                <EMPTY>

    Signature Algorithm: sha1WithRSAEncryption
         03:78:fe:ba:84:bf:0b:7c:e5:01:cb:62:81:79:6c:28:ba:f8:
         ca:d4:8c:34:28:76:bc:66:68:11:b5:9e:c6:07:8f:dc:e6:fe:
         16:ab:1c:94:8b:2c:c6:41:6d:c2:21:83:93:66:18:ae:27:a0:
         79:ba:fb:97:dc:11:94:ff:01:c7:43:13:ef:23:96:17:ca:3e:
         7c:17:88:e9:ca:ab:09:4f:7f:f5:97:9c:51:0c:78:16:54:23:
         c0:33:1c:8c:a1:79:1c:79:e9:5d:b4:60:44:7e:27:d1:25:94:
         ea:3a:d6:2c:87:e2:45:89:d4:1b:a2:b6:80:d3:32:e2:2a:aa:
         46:c0:d7:62:01:c8:34:e8:9d:56:51:04:bc:66:a4:bf:72:06:
         48:87:ca:be:14:d9:ea:ef:df:7f:e9:74:c7:d0:ee:e0:b1:84:
         59:7c:43:3c:54:64:12:94:25:76:54:5b:6c:35:b1:ae:f3:2e:
         4c:76:37:8c:b8:8a:12:46:9a:45:f7:d4:d3:04:a5:4a:e3:ee:
         81:31:42:09:1a:8d:c3:c8:ab:f7:c0:13:de:60:5e:6d:3c:96:
         48:67:8a:32:16:05:9f:56:88:08:2f:a6:0f:3e:2d:47:58:b7:
         6a:05:8a:96:1d:1b:03:de:8c:2a:9d:63:25:35:8a:f0:8b:ff:
         2c:67:c4:4b
-----BEGIN CERTIFICATE-----
MIIEczCCA1ugAwIBAgIBAjANBgkqhkiG9w0BAQUFADBjMQswCQYDVQQGEwJVUzET
MBEGA1UECAwKQ2FsaWZvcm5pYTESMBAGA1UEBwwJUGFsbyBBbHRvMQ0wCwYDVQQK
DARBVCZUMRAwDgYDVQQLDAdGb3VuZHJ5MQowCAYDVQQDDAEqMB4XDTE0MDgyMTIw
NTkyNFoXDTI0MDgxODIwNTkyNFowZzELMAkGA1UEBhMCVVMxEzARBgNVBAgMCkNh
bGlmb3JuaWExDTALBgNVBAoMBEFUJlQxEDAOBgNVBAsMB0ZvdW5kcnkxIjAgBgNV
BAMMGWRvY2tlci5wYW8xOS50Zm91bmRyeS5jb20wggEiMA0GCSqGSIb3DQEBAQUA
A4IBDwAwggEKAoIBAQDgWC3znpiAmLPefuA9ehwc9XWm97AkRgv9pL0gcO9ICRVK
kmT8Kx+cvDNO04khoIkMr4siSPODtsLOak1uo14ojJOlxFBaF1wtx8584dl1uCsO
VT2+PyKsFIJTbBCNVIs4zLPYSYlu22Kc4gFiZSgE/evyMQ71SW6fdgwHhZtIUF8q
lSSNuaeHtg/7BvtyQlzjwHnvoXa+6vT04X6GnW38hIkT5V9I50TmSUN0MTAEZsLR
HvlBVv9nIxHocV3ZlQAb5gjVTRapqeKuPPKI0i5C6CXo3y0yMl1Bt5f7jCNkgGDK
20hJkXL8XlmL+1WCHKAIFLtpKYtfX+yp0jlWeHu/AgMBAAGjggEsMIIBKDAJBgNV
HRMEAjAAMCwGCWCGSAGG+EIBDQQfFh1PcGVuU1NMIEdlbmVyYXRlZCBDZXJ0aWZp
Y2F0ZTAdBgNVHQ4EFgQU2G7hot0RFY+eZl2NhIaPtA322scwgZUGA1UdIwSBjTCB
ioAUjKLIw7nVBsvcZnodSBJmcR5LNVOhZ6RlMGMxCzAJBgNVBAYTAlVTMRMwEQYD
VQQIDApDYWxpZm9ybmlhMRIwEAYDVQQHDAlQYWxvIEFsdG8xDTALBgNVBAoMBEFU
JlQxEDAOBgNVBAsMB0ZvdW5kcnkxCjAIBgNVBAMMASqCCQCMGGyZ1YQbSzATBgNV
HSUEDDAKBggrBgEFBQcDAjALBgNVHQ8EBAMCB4AwCQYDVR0RBAIwADAJBgNVHRIE
AjAAMA0GCSqGSIb3DQEBBQUAA4IBAQADeP66hL8LfOUBy2KBeWwouvjK1Iw0KHa8
ZmgRtZ7GB4/c5v4WqxyUiyzGQW3CIYOTZhiuJ6B5uvuX3BGU/wHHQxPvI5YXyj58
F4jpyqsJT3/1l5xRDHgWVCPAMxyMoXkceeldtGBEfifRJZTqOtYsh+JFidQboraA
0zLiKqpGwNdiAcg06J1WUQS8ZqS/cgZIh8q+FNnq799/6XTH0O7gsYRZfEM8VGQS
lCV2VFtsNbGu8y5MdjeMuIoSRppF99TTBKVK4+6BMUIJGo3DyKv3wBPeYF5tPJZI
Z4oyFgWfVogIL6YPPi1HWLdqBYqWHRsD3owqnWMlNYrwi/8sZ8RL
-----END CERTIFICATE-----
